; Function Attrs: mustprogress uwtable
define dso_local void @_ZN4Json11writeStringB5cxx11ERKNS_12StreamWriter7FactoryERKNS_5ValueE(ptr dead_on_unwind noalias writable sret(%"class.std::__cxx11::basic_string") align 8 %0, ptr noundef nonnull align 8 dereferenceable(8) %1, ptr noundef nonnull align 8 dereferenceable(40) %2) local_unnamed_addr #0 personality ptr @__gxx_personality_v0 {
  %4 = alloca %"class.std::__cxx11::basic_ostringstream", align 8
  call void @_ZNSt7__cxx1119basic_ostringstreamIcSt11char_traitsIcESaIcEEC1Ev(ptr noundef nonnull align 8 dereferenceable(112) %4)
  %5 = load ptr, ptr %1, align 8
  %6 = getelementptr inbounds i8, ptr %5, i64 16
  %7 = load ptr, ptr %6, align 8
  %8 = invoke noundef ptr %7(ptr noundef nonnull align 8 dereferenceable(8) %1)
          to label %9 unwind label %18

9:                                                ; preds = %3
  %10 = load ptr, ptr %8, align 8
  %11 = getelementptr inbounds i8, ptr %10, i64 16
  %12 = load ptr, ptr %11, align 8
  %13 = invoke noundef i32 %12(ptr noundef nonnull align 8 dereferenceable(16) %8, ptr noundef nonnull align 8 dereferenceable(40) %2, ptr noundef nonnull %4)
          to label %14 unwind label %_ZNSt10unique_ptrIN4Json12StreamWriterESt14default_deleteIS1_EED2Ev.exit7

14:                                               ; preds = %9
  invoke void @_ZNKSt7__cxx1119basic_ostringstreamIcSt11char_traitsIcESaIcEE3strEv(ptr dead_on_unwind writable sret(%"class.std::__cxx11::basic_string") align 8 %0, ptr noundef nonnull align 8 dereferenceable(112) %4)
          to label %_ZNSt10unique_ptrIN4Json12StreamWriterESt14default_deleteIS1_EED2Ev.exit unwind label %_ZNSt10unique_ptrIN4Json12StreamWriterESt14default_deleteIS1_EED2Ev.exit7

_ZNSt10unique_ptrIN4Json12StreamWriterESt14default_deleteIS1_EED2Ev.exit: ; preds = %14
  %15 = load ptr, ptr %8, align 8
  %16 = getelementptr inbounds i8, ptr %15, i64 8
  %17 = load ptr, ptr %16, align 8
  call void %17(ptr noundef nonnull align 8 dereferenceable(16) %8) #19
  call void @_ZNSt7__cxx1119basic_ostringstreamIcSt11char_traitsIcESaIcEED1Ev(ptr noundef nonnull align 8 dereferenceable(112) %4) #19
  ret void

18:                                               ; preds = %3
  %19 = landingpad { ptr, i32 }
          cleanup
  br label %24

_ZNSt10unique_ptrIN4Json12StreamWriterESt14default_deleteIS1_EED2Ev.exit7: ; preds = %14, %9
  %20 = landingpad { ptr, i32 }
          cleanup
  %21 = load ptr, ptr %8, align 8
  %22 = getelementptr inbounds i8, ptr %21, i64 8
  %23 = load ptr, ptr %22, align 8
  call void %23(ptr noundef nonnull align 8 dereferenceable(16) %8) #19
  br label %24

24:                                               ; preds = %_ZNSt10unique_ptrIN4Json12StreamWriterESt14default_deleteIS1_EED2Ev.exit7, %18
  %.pn = phi { ptr, i32 } [ %20, %_ZNSt10unique_ptrIN4Json12StreamWriterESt14default_deleteIS1_EED2Ev.exit7 ], [ %19, %18 ]
  call void @_ZNSt7__cxx1119basic_ostringstreamIcSt11char_traitsIcESaIcEED1Ev(ptr noundef nonnull align 8 dereferenceable(112) %4) #19
  resume { ptr, i32 } %.pn
}